target datalayout = "e-m:e-p270:32:32-p271:32:32-p272:64:64-i64:64-i128:128-f80:128-n8:16:32:64-S128"
target triple = "x86_64-pc-linux-gnu"

@hf_gsm_bssmap_le_client_category = internal global i32 0, align 4
@hf_gsm_bssmap_le_client_subtype = internal global i32 0, align 4

; Function Attrs: null_pointer_is_valid sspstrong uwtable
define internal zeroext i16 @de_bmaple_client(ptr noundef %0, ptr noundef %1, ptr noundef %2, i32 noundef %3, i32 noundef %4, ptr noundef %5, i32 noundef %6) #1 {
  %8 = alloca ptr, align 8
  %9 = alloca ptr, align 8
  %10 = alloca ptr, align 8
  %11 = alloca i32, align 4
  %12 = alloca i32, align 4
  %13 = alloca ptr, align 8
  %14 = alloca i32, align 4
  %15 = alloca i32, align 4
  %16 = alloca i8, align 1
  store ptr %0, ptr %8, align 8
  store ptr %1, ptr %9, align 8
  store ptr %2, ptr %10, align 8
  store i32 %3, ptr %11, align 4
  store i32 %4, ptr %12, align 4
  store ptr %5, ptr %13, align 8
  store i32 %6, ptr %14, align 4
  call void @llvm.lifetime.start.p0(i64 4, ptr %15) #3
  call void @llvm.lifetime.start.p0(i64 1, ptr %16) #3
  %17 = load i32, ptr %11, align 4
  %18 = shl i32 %17, 3
  %19 = trunc i32 %18 to i8
  store i8 %19, ptr %16, align 1
  %20 = load i32, ptr %11, align 4
  store i32 %20, ptr %15, align 4
  %21 = load ptr, ptr %9, align 8
  %22 = load i32, ptr @hf_gsm_bssmap_le_client_category, align 4
  %23 = load ptr, ptr %8, align 8
  %24 = load i8, ptr %16, align 1
  %25 = zext i8 %24 to i32
  %26 = call ptr @proto_tree_add_bits_item(ptr noundef %21, i32 noundef %22, ptr noundef %23, i32 noundef %25, i32 noundef 4, i32 noundef 0)
  %27 = load i8, ptr %16, align 1
  %28 = zext i8 %27 to i32
  %29 = add i32 %28, 4
  %30 = trunc i32 %29 to i8
  store i8 %30, ptr %16, align 1
  %31 = load ptr, ptr %9, align 8
  %32 = load i32, ptr @hf_gsm_bssmap_le_client_subtype, align 4
  %33 = load ptr, ptr %8, align 8
  %34 = load i8, ptr %16, align 1
  %35 = zext i8 %34 to i32
  %36 = call ptr @proto_tree_add_bits_item(ptr noundef %31, i32 noundef %32, ptr noundef %33, i32 noundef %35, i32 noundef 4, i32 noundef 0)
  %37 = load i32, ptr %15, align 4
  %38 = add i32 %37, 1
  store i32 %38, ptr %15, align 4
  %39 = load i32, ptr %15, align 4
  %40 = load i32, ptr %11, align 4
  %41 = sub i32 %39, %40
  %42 = trunc i32 %41 to i16
  call void @llvm.lifetime.end.p0(i64 1, ptr %16) #3
  call void @llvm.lifetime.end.p0(i64 4, ptr %15) #3
  ret i16 %42
}