; Function Attrs: null_pointer_is_valid sspstrong uwtable
define internal noundef zeroext i16 @de_bmaple_client(ptr noundef %0, ptr noundef %1, ptr readnone captures(none) %2, i32 noundef %3, i32 %4, ptr readnone captures(none) %5, i32 %6) #1 {
  %8 = shl i32 %3, 3
  %9 = load i32, ptr @hf_gsm_bssmap_le_client_category, align 4
  %10 = and i32 %8, 248
  %11 = tail call ptr @proto_tree_add_bits_item(ptr noundef %1, i32 noundef %9, ptr noundef %0, i32 noundef %10, i32 noundef 4, i32 noundef 0)
  %12 = load i32, ptr @hf_gsm_bssmap_le_client_subtype, align 4
  %13 = or disjoint i32 %10, 4
  %14 = tail call ptr @proto_tree_add_bits_item(ptr noundef %1, i32 noundef %12, ptr noundef %0, i32 noundef %13, i32 noundef 4, i32 noundef 0)
  ret i16 1
}